(lp0
(S'cppflags'
p1
ccopy_reg
_reconstructor
p2
(cino.utils
SpaceList
p3
c__builtin__
list
p4
(lp5
S'-mmcu=atmega2560'
p6
aS'-DF_CPU=16000000L'
p7
aS'-DARDUINO=101'
p8
aS'-I/usr/share/arduino/hardware/arduino/cores/arduino'
p9
aS'-ffunction-sections'
p10
aS'-fdata-sections'
p11
aS'-g'
p12
aS'-Os'
p13
aS'-w'
p14
aS'-I/usr/share/arduino/hardware/arduino/variants/mega'
p15
aS'-I/usr/share/arduino/libraries/PWFusion_MAX31865'
p16
aS'-I/usr/share/arduino/libraries/dht11'
p17
aS'-I/usr/share/arduino/libraries/br3ttb-Arduino-PID-AutoTune-Library-7c03cf3'
p18
aS'-I/usr/share/arduino/libraries/br3ttb-Arduino-PID-AutoTune-Library-7c03cf3/PID_AutoTune_v0'
p19
aS'-I/usr/share/arduino/libraries/br3ttb-Arduino-PID-AutoTune-Library-7c03cf3/Examples'
p20
aS'-I/usr/share/arduino/libraries/br3ttb-Arduino-PID-AutoTune-Library-7c03cf3/PID_AutoTune_v0/Examples'
p21
aS'-I/usr/share/arduino/libraries/br3ttb-Arduino-PID-AutoTune-Library-7c03cf3/PID_AutoTune_v0/Examples/AutoTune_Example'
p22
aS'-I/usr/share/arduino/libraries/br3ttb-Arduino-PID-AutoTune-Library-7c03cf3/Examples/AutoTune_Example'
p23
aS'-I/usr/share/arduino/libraries/br3ttb-Arduino-PID-AutoTune-Library-7c03cf3/PID_AutoTune_v0/Examples/AutoTune_Example'
p24
aS'-I/usr/share/arduino/libraries/U8glib'
p25
aS'-I/usr/share/arduino/libraries/U8glib/utility'
p26
aS'-I/usr/share/arduino/libraries/br3ttb-Arduino-PID-Library-d21d7e3'
p27
aS'-I/usr/share/arduino/libraries/br3ttb-Arduino-PID-Library-d21d7e3/PID_v1'
p28
aS'-I/usr/share/arduino/libraries/br3ttb-Arduino-PID-Library-d21d7e3/PID_v1/Examples'
p29
aS'-I/usr/share/arduino/libraries/br3ttb-Arduino-PID-Library-d21d7e3/PID_v1/Examples/PID_RelayOutput'
p30
aS'-I/usr/share/arduino/libraries/br3ttb-Arduino-PID-Library-d21d7e3/PID_v1/Examples/PID_AdaptiveTunings'
p31
aS'-I/usr/share/arduino/libraries/br3ttb-Arduino-PID-Library-d21d7e3/PID_v1/Examples/PID_Basic'
p32
aS'-I/usr/share/arduino/libraries/br3ttb-Arduino-PID-Library-d21d7e3/PID_v1/Examples/PID_RelayOutput'
p33
aS'-I/usr/share/arduino/libraries/br3ttb-Arduino-PID-Library-d21d7e3/PID_v1/Examples/PID_AdaptiveTunings'
p34
aS'-I/usr/share/arduino/libraries/br3ttb-Arduino-PID-Library-d21d7e3/PID_v1/Examples/PID_Basic'
p35
aS'-I/usr/share/arduino/libraries/SPI'
p36
aS'-I/usr/share/arduino/hardware/arduino/cores/arduino'
p37
atp38
Rp39
tp40
a(S'cxx'
p41
S'/usr/bin/avr-g++'
p42
tp43
a(S'arduino_libraries_dir'
p44
S'/usr/share/arduino/libraries'
p45
tp46
a(S'avrdude'
p47
S'/usr/share/arduino/hardware/tools/avrdude'
p48
tp49
a(S'ar'
p50
S'/usr/bin/avr-ar'
p51
tp52
a(S'names'
p53
(dp54
S'cpp'
p55
S'%s.cpp'
p56
sS'obj'
p57
S'%s.o'
p58
sS'lib'
p59
S'lib%s.a'
p60
sS'deps'
p61
S'%s.d'
p62
stp63
a(S'ldflags'
p64
g2
(g3
g4
(lp65
g6
aS'-Wl,-Os'
p66
aS'-Wl,--gc-sections'
p67
atp68
Rp69
tp70
a(S'arduino_lib_version'
p71
g2
(cino.environment
Version
p72
c__builtin__
tuple
p73
(I1
I0
I1
tp74
tp75
Rp76
tp77
a(S'objcopy'
p78
S'/usr/bin/avr-objcopy'
p79
tp80
a(S'board_models'
p81
cino.environment
BoardModels
p82
((lp83
(lp84
S'uno'
p85
a(dp86
S'build'
p87
(dp88
S'core'
p89
S'arduino'
p90
sS'mcu'
p91
S'atmega328p'
p92
sS'f_cpu'
p93
S'16000000L'
p94
sS'variant'
p95
S'standard'
p96
ssS'bootloader'
p97
(dp98
S'extended_fuses'
p99
S'0x05'
p100
sS'high_fuses'
p101
S'0xde'
p102
sS'low_fuses'
p103
S'0xff'
p104
sS'lock_bits'
p105
S'0x0F'
p106
sS'file'
p107
S'optiboot_atmega328.hex'
p108
sS'path'
p109
S'optiboot'
p110
sS'unlock_bits'
p111
S'0x3F'
p112
ssS'upload'
p113
(dp114
S'protocol'
p115
S'arduino'
p116
sS'maximum_size'
p117
S'32256'
p118
sS'speed'
p119
S'115200'
p120
ssS'name'
p121
S'Arduino Uno'
p122
saa(lp123
S'atmega328'
p124
a(dp125
S'build'
p126
(dp127
S'core'
p128
S'arduino'
p129
sS'mcu'
p130
S'atmega328p'
p131
sS'f_cpu'
p132
S'16000000L'
p133
sS'variant'
p134
S'standard'
p135
ssS'bootloader'
p136
(dp137
S'extended_fuses'
p138
S'0x05'
p139
sS'high_fuses'
p140
S'0xDA'
p141
sS'low_fuses'
p142
S'0xFF'
p143
sS'lock_bits'
p144
S'0x0F'
p145
sS'file'
p146
S'ATmegaBOOT_168_atmega328.hex'
p147
sS'path'
p148
S'atmega'
p149
sS'unlock_bits'
p150
S'0x3F'
p151
ssS'upload'
p152
(dp153
S'protocol'
p154
S'arduino'
p155
sS'maximum_size'
p156
S'30720'
p157
sS'speed'
p158
S'57600'
p159
ssS'name'
p160
S'Arduino Duemilanove w/ ATmega328'
p161
saa(lp162
S'diecimila'
p163
a(dp164
S'build'
p165
(dp166
S'core'
p167
S'arduino'
p168
sS'mcu'
p169
S'atmega168'
p170
sS'f_cpu'
p171
S'16000000L'
p172
sS'variant'
p173
S'standard'
p174
ssS'bootloader'
p175
(dp176
S'extended_fuses'
p177
S'0x00'
p178
sS'high_fuses'
p179
S'0xdd'
p180
sS'low_fuses'
p181
S'0xff'
p182
sS'lock_bits'
p183
S'0x0F'
p184
sS'file'
p185
S'ATmegaBOOT_168_diecimila.hex'
p186
sS'path'
p187
S'atmega'
p188
sS'unlock_bits'
p189
S'0x3F'
p190
ssS'upload'
p191
(dp192
S'protocol'
p193
S'arduino'
p194
sS'maximum_size'
p195
S'14336'
p196
sS'speed'
p197
S'19200'
p198
ssS'name'
p199
S'Arduino Diecimila or Duemilanove w/ ATmega168'
p200
saa(lp201
S'nano328'
p202
a(dp203
S'build'
p204
(dp205
S'core'
p206
S'arduino'
p207
sS'mcu'
p208
S'atmega328p'
p209
sS'f_cpu'
p210
S'16000000L'
p211
sS'variant'
p212
S'eightanaloginputs'
p213
ssS'bootloader'
p214
(dp215
S'extended_fuses'
p216
S'0x05'
p217
sS'high_fuses'
p218
S'0xDA'
p219
sS'low_fuses'
p220
S'0xFF'
p221
sS'lock_bits'
p222
S'0x0F'
p223
sS'file'
p224
S'ATmegaBOOT_168_atmega328.hex'
p225
sS'path'
p226
S'atmega'
p227
sS'unlock_bits'
p228
S'0x3F'
p229
ssS'upload'
p230
(dp231
S'protocol'
p232
S'arduino'
p233
sS'maximum_size'
p234
S'30720'
p235
sS'speed'
p236
S'57600'
p237
ssS'name'
p238
S'Arduino Nano w/ ATmega328'
p239
saa(lp240
S'nano'
p241
a(dp242
S'build'
p243
(dp244
S'core'
p245
S'arduino'
p246
sS'mcu'
p247
S'atmega168'
p248
sS'f_cpu'
p249
S'16000000L'
p250
sS'variant'
p251
S'eightanaloginputs'
p252
ssS'bootloader'
p253
(dp254
S'extended_fuses'
p255
S'0x00'
p256
sS'high_fuses'
p257
S'0xdd'
p258
sS'low_fuses'
p259
S'0xff'
p260
sS'lock_bits'
p261
S'0x0F'
p262
sS'file'
p263
S'ATmegaBOOT_168_diecimila.hex'
p264
sS'path'
p265
S'atmega'
p266
sS'unlock_bits'
p267
S'0x3F'
p268
ssS'upload'
p269
(dp270
S'protocol'
p271
S'arduino'
p272
sS'maximum_size'
p273
S'14336'
p274
sS'speed'
p275
S'19200'
p276
ssS'name'
p277
S'Arduino Nano w/ ATmega168'
p278
saa(lp279
S'mega2560'
p280
a(dp281
S'build'
p282
(dp283
S'core'
p284
S'arduino'
p285
sS'mcu'
p286
S'atmega2560'
p287
sS'f_cpu'
p288
S'16000000L'
p289
sS'variant'
p290
S'mega'
p291
ssS'bootloader'
p292
(dp293
S'extended_fuses'
p294
S'0xFD'
p295
sS'high_fuses'
p296
S'0xD8'
p297
sS'low_fuses'
p298
S'0xFF'
p299
sS'lock_bits'
p300
S'0x0F'
p301
sS'file'
p302
S'stk500boot_v2_mega2560.hex'
p303
sS'path'
p304
S'stk500v2'
p305
sS'unlock_bits'
p306
S'0x3F'
p307
ssS'upload'
p308
(dp309
S'protocol'
p310
S'stk500v2'
p311
sS'maximum_size'
p312
S'258048'
p313
sS'speed'
p314
S'115200'
p315
ssS'name'
p316
S'Arduino Mega 2560 or Mega ADK'
p317
saa(lp318
S'mega'
p319
a(dp320
S'build'
p321
(dp322
S'core'
p323
S'arduino'
p324
sS'mcu'
p325
S'atmega1280'
p326
sS'f_cpu'
p327
S'16000000L'
p328
sS'variant'
p329
S'mega'
p330
ssS'bootloader'
p331
(dp332
S'extended_fuses'
p333
S'0xF5'
p334
sS'high_fuses'
p335
S'0xDA'
p336
sS'low_fuses'
p337
S'0xFF'
p338
sS'lock_bits'
p339
S'0x0F'
p340
sS'file'
p341
S'ATmegaBOOT_168_atmega1280.hex'
p342
sS'path'
p343
S'atmega'
p344
sS'unlock_bits'
p345
S'0x3F'
p346
ssS'upload'
p347
(dp348
S'protocol'
p349
S'arduino'
p350
sS'maximum_size'
p351
S'126976'
p352
sS'speed'
p353
S'57600'
p354
ssS'name'
p355
S'Arduino Mega (ATmega1280)'
p356
saa(lp357
S'leonardo'
p358
a(dp359
S'build'
p360
(dp361
S'core'
p362
S'arduino'
p363
sS'f_cpu'
p364
S'16000000L'
p365
sS'vid'
p366
S'0x2341'
p367
sS'pid'
p368
S'0x8036'
p369
sS'variant'
p370
S'leonardo'
p371
sS'mcu'
p372
S'atmega32u4'
p373
ssS'bootloader'
p374
(dp375
S'extended_fuses'
p376
S'0xcb'
p377
sS'high_fuses'
p378
S'0xd8'
p379
sS'low_fuses'
p380
S'0xff'
p381
sS'lock_bits'
p382
S'0x2F'
p383
sS'file'
p384
S'Caterina-Leonardo.hex'
p385
sS'path'
p386
S'caterina'
p387
sS'unlock_bits'
p388
S'0x3F'
p389
ssS'upload'
p390
(dp391
S'protocol'
p392
S'avr109'
p393
sS'maximum_size'
p394
S'28672'
p395
sS'speed'
p396
S'57600'
p397
sS'disable_flushing'
p398
S'true'
p399
ssS'name'
p400
S'Arduino Leonardo'
p401
saa(lp402
S'mini328'
p403
a(dp404
S'build'
p405
(dp406
S'core'
p407
S'arduino'
p408
sS'mcu'
p409
S'atmega328p'
p410
sS'f_cpu'
p411
S'16000000L'
p412
sS'variant'
p413
S'eightanaloginputs'
p414
ssS'bootloader'
p415
(dp416
S'extended_fuses'
p417
S'0x05'
p418
sS'high_fuses'
p419
S'0xd8'
p420
sS'low_fuses'
p421
S'0xff'
p422
sS'lock_bits'
p423
S'0x0F'
p424
sS'file'
p425
S'optiboot_atmega328-Mini.hex'
p426
sS'path'
p427
S'optiboot'
p428
sS'unlock_bits'
p429
S'0x3F'
p430
ssS'upload'
p431
(dp432
S'protocol'
p433
S'arduino'
p434
sS'maximum_size'
p435
S'28672'
p436
sS'speed'
p437
S'115200'
p438
ssS'name'
p439
S'Arduino Mini w/ ATmega328'
p440
saa(lp441
S'mini'
p442
a(dp443
S'build'
p444
(dp445
S'core'
p446
S'arduino'
p447
sS'mcu'
p448
S'atmega168'
p449
sS'f_cpu'
p450
S'16000000L'
p451
sS'variant'
p452
S'eightanaloginputs'
p453
ssS'bootloader'
p454
(dp455
S'extended_fuses'
p456
S'0x00'
p457
sS'high_fuses'
p458
S'0xdd'
p459
sS'low_fuses'
p460
S'0xff'
p461
sS'lock_bits'
p462
S'0x0F'
p463
sS'file'
p464
S'ATmegaBOOT_168_ng.hex'
p465
sS'path'
p466
S'atmega'
p467
sS'unlock_bits'
p468
S'0x3F'
p469
ssS'upload'
p470
(dp471
S'protocol'
p472
S'arduino'
p473
sS'maximum_size'
p474
S'14336'
p475
sS'speed'
p476
S'19200'
p477
ssS'name'
p478
S'Arduino Mini w/ ATmega168'
p479
saa(lp480
S'ethernet'
p481
a(dp482
S'build'
p483
(dp484
S'variant'
p485
S'standard'
p486
sS'mcu'
p487
S'atmega328p'
p488
sS'f_cpu'
p489
S'16000000L'
p490
sS'core'
p491
S'arduino'
p492
ssS'bootloader'
p493
(dp494
S'extended_fuses'
p495
S'0x05'
p496
sS'high_fuses'
p497
S'0xde'
p498
sS'low_fuses'
p499
S'0xff'
p500
sS'lock_bits'
p501
S'0x0F'
p502
sS'file'
p503
S'optiboot_atmega328.hex'
p504
sS'path'
p505
S'optiboot'
p506
sS'unlock_bits'
p507
S'0x3F'
p508
ssS'upload'
p509
(dp510
S'protocol'
p511
S'arduino'
p512
sS'maximum_size'
p513
S'32256'
p514
sS'speed'
p515
S'115200'
p516
ssS'name'
p517
S'Arduino Ethernet'
p518
saa(lp519
S'fio'
p520
a(dp521
S'build'
p522
(dp523
S'core'
p524
S'arduino'
p525
sS'mcu'
p526
S'atmega328p'
p527
sS'f_cpu'
p528
S'8000000L'
p529
sS'variant'
p530
S'eightanaloginputs'
p531
ssS'bootloader'
p532
(dp533
S'extended_fuses'
p534
S'0x05'
p535
sS'high_fuses'
p536
S'0xDA'
p537
sS'low_fuses'
p538
S'0xFF'
p539
sS'lock_bits'
p540
S'0x0F'
p541
sS'file'
p542
S'ATmegaBOOT_168_atmega328_pro_8MHz.hex'
p543
sS'path'
p544
S'arduino:atmega'
p545
sS'unlock_bits'
p546
S'0x3F'
p547
ssS'upload'
p548
(dp549
S'protocol'
p550
S'arduino'
p551
sS'maximum_size'
p552
S'30720'
p553
sS'speed'
p554
S'57600'
p555
ssS'name'
p556
S'Arduino Fio'
p557
saa(lp558
S'bt328'
p559
a(dp560
S'build'
p561
(dp562
S'core'
p563
S'arduino'
p564
sS'mcu'
p565
S'atmega328p'
p566
sS'f_cpu'
p567
S'16000000L'
p568
sS'variant'
p569
S'eightanaloginputs'
p570
ssS'bootloader'
p571
(dp572
S'extended_fuses'
p573
S'0x05'
p574
sS'high_fuses'
p575
S'0xd8'
p576
sS'low_fuses'
p577
S'0xff'
p578
sS'lock_bits'
p579
S'0x0F'
p580
sS'file'
p581
S'ATmegaBOOT_168_atmega328_bt.hex'
p582
sS'path'
p583
S'bt'
p584
sS'unlock_bits'
p585
S'0x3F'
p586
ssS'upload'
p587
(dp588
S'protocol'
p589
S'arduino'
p590
sS'maximum_size'
p591
S'28672'
p592
sS'speed'
p593
S'19200'
p594
sS'disable_flushing'
p595
S'true'
p596
ssS'name'
p597
S'Arduino BT w/ ATmega328'
p598
saa(lp599
S'bt'
p600
a(dp601
S'build'
p602
(dp603
S'core'
p604
S'arduino'
p605
sS'mcu'
p606
S'atmega168'
p607
sS'f_cpu'
p608
S'16000000L'
p609
sS'variant'
p610
S'eightanaloginputs'
p611
ssS'bootloader'
p612
(dp613
S'extended_fuses'
p614
S'0x00'
p615
sS'high_fuses'
p616
S'0xdd'
p617
sS'low_fuses'
p618
S'0xff'
p619
sS'lock_bits'
p620
S'0x0F'
p621
sS'file'
p622
S'ATmegaBOOT_168.hex'
p623
sS'path'
p624
S'bt'
p625
sS'unlock_bits'
p626
S'0x3F'
p627
ssS'upload'
p628
(dp629
S'protocol'
p630
S'arduino'
p631
sS'maximum_size'
p632
S'14336'
p633
sS'speed'
p634
S'19200'
p635
sS'disable_flushing'
p636
S'true'
p637
ssS'name'
p638
S'Arduino BT w/ ATmega168'
p639
saa(lp640
S'lilypad328'
p641
a(dp642
S'build'
p643
(dp644
S'core'
p645
S'arduino'
p646
sS'mcu'
p647
S'atmega328p'
p648
sS'f_cpu'
p649
S'8000000L'
p650
sS'variant'
p651
S'standard'
p652
ssS'bootloader'
p653
(dp654
S'extended_fuses'
p655
S'0x05'
p656
sS'high_fuses'
p657
S'0xDA'
p658
sS'low_fuses'
p659
S'0xFF'
p660
sS'lock_bits'
p661
S'0x0F'
p662
sS'file'
p663
S'ATmegaBOOT_168_atmega328_pro_8MHz.hex'
p664
sS'path'
p665
S'atmega'
p666
sS'unlock_bits'
p667
S'0x3F'
p668
ssS'upload'
p669
(dp670
S'protocol'
p671
S'arduino'
p672
sS'maximum_size'
p673
S'30720'
p674
sS'speed'
p675
S'57600'
p676
ssS'name'
p677
S'LilyPad Arduino w/ ATmega328'
p678
saa(lp679
S'lilypad'
p680
a(dp681
S'build'
p682
(dp683
S'core'
p684
S'arduino'
p685
sS'mcu'
p686
S'atmega168'
p687
sS'f_cpu'
p688
S'8000000L'
p689
sS'variant'
p690
S'standard'
p691
ssS'bootloader'
p692
(dp693
S'extended_fuses'
p694
S'0x00'
p695
sS'high_fuses'
p696
S'0xdd'
p697
sS'low_fuses'
p698
S'0xe2'
p699
sS'lock_bits'
p700
S'0x0F'
p701
sS'file'
p702
S'LilyPadBOOT_168.hex'
p703
sS'path'
p704
S'lilypad'
p705
sS'unlock_bits'
p706
S'0x3F'
p707
ssS'upload'
p708
(dp709
S'protocol'
p710
S'arduino'
p711
sS'maximum_size'
p712
S'14336'
p713
sS'speed'
p714
S'19200'
p715
ssS'name'
p716
S'LilyPad Arduino w/ ATmega168'
p717
saa(lp718
S'pro5v328'
p719
a(dp720
S'build'
p721
(dp722
S'core'
p723
S'arduino'
p724
sS'mcu'
p725
S'atmega328p'
p726
sS'f_cpu'
p727
S'16000000L'
p728
sS'variant'
p729
S'standard'
p730
ssS'bootloader'
p731
(dp732
S'extended_fuses'
p733
S'0x05'
p734
sS'high_fuses'
p735
S'0xDA'
p736
sS'low_fuses'
p737
S'0xFF'
p738
sS'lock_bits'
p739
S'0x0F'
p740
sS'file'
p741
S'ATmegaBOOT_168_atmega328.hex'
p742
sS'path'
p743
S'atmega'
p744
sS'unlock_bits'
p745
S'0x3F'
p746
ssS'upload'
p747
(dp748
S'protocol'
p749
S'arduino'
p750
sS'maximum_size'
p751
S'30720'
p752
sS'speed'
p753
S'57600'
p754
ssS'name'
p755
S'Arduino Pro or Pro Mini (5V, 16 MHz) w/ ATmega328'
p756
saa(lp757
S'pro5v'
p758
a(dp759
S'build'
p760
(dp761
S'core'
p762
S'arduino'
p763
sS'mcu'
p764
S'atmega168'
p765
sS'f_cpu'
p766
S'16000000L'
p767
sS'variant'
p768
S'standard'
p769
ssS'bootloader'
p770
(dp771
S'extended_fuses'
p772
S'0x00'
p773
sS'high_fuses'
p774
S'0xdd'
p775
sS'low_fuses'
p776
S'0xff'
p777
sS'lock_bits'
p778
S'0x0F'
p779
sS'file'
p780
S'ATmegaBOOT_168_diecimila.hex'
p781
sS'path'
p782
S'atmega'
p783
sS'unlock_bits'
p784
S'0x3F'
p785
ssS'upload'
p786
(dp787
S'protocol'
p788
S'arduino'
p789
sS'maximum_size'
p790
S'14336'
p791
sS'speed'
p792
S'19200'
p793
ssS'name'
p794
S'Arduino Pro or Pro Mini (5V, 16 MHz) w/ ATmega168'
p795
saa(lp796
S'pro328'
p797
a(dp798
S'build'
p799
(dp800
S'core'
p801
S'arduino'
p802
sS'mcu'
p803
S'atmega328p'
p804
sS'f_cpu'
p805
S'8000000L'
p806
sS'variant'
p807
S'standard'
p808
ssS'bootloader'
p809
(dp810
S'extended_fuses'
p811
S'0x05'
p812
sS'high_fuses'
p813
S'0xDA'
p814
sS'low_fuses'
p815
S'0xFF'
p816
sS'lock_bits'
p817
S'0x0F'
p818
sS'file'
p819
S'ATmegaBOOT_168_atmega328_pro_8MHz.hex'
p820
sS'path'
p821
S'atmega'
p822
sS'unlock_bits'
p823
S'0x3F'
p824
ssS'upload'
p825
(dp826
S'protocol'
p827
S'arduino'
p828
sS'maximum_size'
p829
S'30720'
p830
sS'speed'
p831
S'57600'
p832
ssS'name'
p833
S'Arduino Pro or Pro Mini (3.3V, 8 MHz) w/ ATmega328'
p834
saa(lp835
S'pro'
p836
a(dp837
S'build'
p838
(dp839
S'core'
p840
S'arduino'
p841
sS'mcu'
p842
S'atmega168'
p843
sS'f_cpu'
p844
S'8000000L'
p845
sS'variant'
p846
S'standard'
p847
ssS'bootloader'
p848
(dp849
S'extended_fuses'
p850
S'0x00'
p851
sS'high_fuses'
p852
S'0xdd'
p853
sS'low_fuses'
p854
S'0xc6'
p855
sS'lock_bits'
p856
S'0x0F'
p857
sS'file'
p858
S'ATmegaBOOT_168_pro_8MHz.hex'
p859
sS'path'
p860
S'atmega'
p861
sS'unlock_bits'
p862
S'0x3F'
p863
ssS'upload'
p864
(dp865
S'protocol'
p866
S'arduino'
p867
sS'maximum_size'
p868
S'14336'
p869
sS'speed'
p870
S'19200'
p871
ssS'name'
p872
S'Arduino Pro or Pro Mini (3.3V, 8 MHz) w/ ATmega168'
p873
saa(lp874
S'atmega168'
p875
a(dp876
S'build'
p877
(dp878
S'core'
p879
S'arduino'
p880
sS'mcu'
p881
S'atmega168'
p882
sS'f_cpu'
p883
S'16000000L'
p884
sS'variant'
p885
S'standard'
p886
ssS'bootloader'
p887
(dp888
S'extended_fuses'
p889
S'0x00'
p890
sS'high_fuses'
p891
S'0xdd'
p892
sS'low_fuses'
p893
S'0xff'
p894
sS'lock_bits'
p895
S'0x0F'
p896
sS'file'
p897
S'ATmegaBOOT_168_ng.hex'
p898
sS'path'
p899
S'atmega'
p900
sS'unlock_bits'
p901
S'0x3F'
p902
ssS'upload'
p903
(dp904
S'protocol'
p905
S'arduino'
p906
sS'maximum_size'
p907
S'14336'
p908
sS'speed'
p909
S'19200'
p910
ssS'name'
p911
S'Arduino NG or older w/ ATmega168'
p912
saa(lp913
S'atmega8'
p914
a(dp915
S'build'
p916
(dp917
S'core'
p918
S'arduino'
p919
sS'mcu'
p920
S'atmega8'
p921
sS'f_cpu'
p922
S'16000000L'
p923
sS'variant'
p924
S'standard'
p925
ssS'bootloader'
p926
(dp927
S'high_fuses'
p928
S'0xca'
p929
sS'low_fuses'
p930
S'0xdf'
p931
sS'lock_bits'
p932
S'0x0F'
p933
sS'file'
p934
S'ATmegaBOOT.hex'
p935
sS'path'
p936
S'atmega8'
p937
sS'unlock_bits'
p938
S'0x3F'
p939
ssS'upload'
p940
(dp941
S'protocol'
p942
S'arduino'
p943
sS'maximum_size'
p944
S'7168'
p945
sS'speed'
p946
S'19200'
p947
ssS'name'
p948
S'Arduino NG or older w/ ATmega8'
p949
saatp950
Rp951
(dp952
S'default'
p953
S'uno'
p954
sbtp955
a(S'used_libs'
p956
(lp957
S'/usr/share/arduino/libraries/PWFusion_MAX31865'
p958
aS'/usr/share/arduino/libraries/dht11'
p959
aS'/usr/share/arduino/libraries/br3ttb-Arduino-PID-AutoTune-Library-7c03cf3'
p960
aS'/usr/share/arduino/libraries/U8glib'
p961
aS'/usr/share/arduino/libraries/br3ttb-Arduino-PID-Library-d21d7e3'
p962
aS'/usr/share/arduino/libraries/SPI'
p963
aS'/usr/share/arduino/hardware/arduino/cores/arduino'
p964
atp965
a(S'make'
p966
S'/usr/bin/make'
p967
tp968
a(S'build_dir'
p969
S'.build/mega2560'
p970
tp971
a(S'cc'
p972
S'/usr/bin/avr-gcc'
p973
tp974
a(S'cflags'
p975
g2
(g3
g4
(lp976
tp977
Rp978
tp979
a(S'cxxflags'
p980
g2
(g3
g4
(lp981
S'-fno-exceptions'
p982
atp983
Rp984
tp985
a(S'arduino_variants_dir'
p986
S'/usr/share/arduino/hardware/arduino/variants'
p987
tp988
a(S'stty'
p989
S'/bin/stty'
p990
tp991
a(S'version.txt'
p992
S'/usr/share/arduino/lib/version.txt'
p993
tp994
a(S'arduino_core_dir'
p995
g964
tp996
a(S'boards.txt'
p997
S'/usr/share/arduino/hardware/arduino/boards.txt'
p998
tp999
a(S'avrdude.conf'
p1000
S'/usr/share/arduino/hardware/tools/avrdude.conf'
p1001
tp1002
a(S'deps'
p1003
g2
(g3
g4
(lp1004
S'.build/mega2560/src/dependencies.d'
p1005
aS'.build/mega2560/arduino/dependencies.d'
p1006
aS'.build/mega2560/PWFusion_MAX31865/dependencies.d'
p1007
aS'.build/mega2560/dht11/dependencies.d'
p1008
aS'.build/mega2560/SPI/dependencies.d'
p1009
aS'.build/mega2560/br3ttb-Arduino-PID-AutoTune-Library-7c03cf3/dependencies.d'
p1010
aS'.build/mega2560/U8glib/dependencies.d'
p1011
aS'.build/mega2560/br3ttb-Arduino-PID-Library-d21d7e3/dependencies.d'
p1012
atp1013
Rp1014
tp1015
a.