(lp0
(S'cppflags'
p1
ccopy_reg
_reconstructor
p2
(cino.utils
SpaceList
p3
c__builtin__
list
p4
(lp5
S'-mmcu=atmega2560'
p6
aS'-DF_CPU=16000000L'
p7
aS'-DARDUINO=101'
p8
aS'-I/usr/share/arduino/hardware/arduino/cores/arduino'
p9
aS'-ffunction-sections'
p10
aS'-fdata-sections'
p11
aS'-g'
p12
aS'-Os'
p13
aS'-w'
p14
aS'-I/usr/share/arduino/hardware/arduino/variants/mega'
p15
aS'-I/usr/share/arduino/libraries/PWFusion_MAX31865'
p16
aS'-I/usr/share/arduino/libraries/dht11'
p17
aS'-I/usr/share/arduino/libraries/br3ttb-Arduino-PID-AutoTune-Library-7c03cf3'
p18
aS'-I/usr/share/arduino/libraries/br3ttb-Arduino-PID-AutoTune-Library-7c03cf3/PID_AutoTune_v0'
p19
aS'-I/usr/share/arduino/libraries/br3ttb-Arduino-PID-AutoTune-Library-7c03cf3/Examples'
p20
aS'-I/usr/share/arduino/libraries/br3ttb-Arduino-PID-AutoTune-Library-7c03cf3/PID_AutoTune_v0/Examples'
p21
aS'-I/usr/share/arduino/libraries/br3ttb-Arduino-PID-AutoTune-Library-7c03cf3/PID_AutoTune_v0/Examples/AutoTune_Example'
p22
aS'-I/usr/share/arduino/libraries/br3ttb-Arduino-PID-AutoTune-Library-7c03cf3/Examples/AutoTune_Example'
p23
aS'-I/usr/share/arduino/libraries/br3ttb-Arduino-PID-AutoTune-Library-7c03cf3/PID_AutoTune_v0/Examples/AutoTune_Example'
p24
aS'-I/usr/share/arduino/libraries/U8glib'
p25
aS'-I/usr/share/arduino/libraries/U8glib/utility'
p26
aS'-I/usr/share/arduino/libraries/br3ttb-Arduino-PID-Library-d21d7e3'
p27
aS'-I/usr/share/arduino/libraries/br3ttb-Arduino-PID-Library-d21d7e3/PID_v1'
p28
aS'-I/usr/share/arduino/libraries/br3ttb-Arduino-PID-Library-d21d7e3/PID_v1/Examples'
p29
aS'-I/usr/share/arduino/libraries/br3ttb-Arduino-PID-Library-d21d7e3/PID_v1/Examples/PID_RelayOutput'
p30
aS'-I/usr/share/arduino/libraries/br3ttb-Arduino-PID-Library-d21d7e3/PID_v1/Examples/PID_AdaptiveTunings'
p31
aS'-I/usr/share/arduino/libraries/br3ttb-Arduino-PID-Library-d21d7e3/PID_v1/Examples/PID_Basic'
p32
aS'-I/usr/share/arduino/libraries/br3ttb-Arduino-PID-Library-d21d7e3/PID_v1/Examples/PID_RelayOutput'
p33
aS'-I/usr/share/arduino/libraries/br3ttb-Arduino-PID-Library-d21d7e3/PID_v1/Examples/PID_AdaptiveTunings'
p34
aS'-I/usr/share/arduino/libraries/br3ttb-Arduino-PID-Library-d21d7e3/PID_v1/Examples/PID_Basic'
p35
aS'-I/usr/share/arduino/libraries/SPI'
p36
aS'-I/usr/share/arduino/hardware/arduino/cores/arduino'
p37
atp38
Rp39
tp40
a(S'cxx'
p41
S'/usr/bin/avr-g++'
p42
tp43
a(S'build_dir'
p44
S'.build/mega2560'
p45
tp46
a(S'avrdude'
p47
S'/usr/share/arduino/hardware/tools/avrdude'
p48
tp49
a(S'ar'
p50
S'/usr/bin/avr-ar'
p51
tp52
a(S'names'
p53
(dp54
S'cpp'
p55
S'%s.cpp'
p56
sS'obj'
p57
S'%s.o'
p58
sS'lib'
p59
S'lib%s.a'
p60
sS'deps'
p61
S'%s.d'
p62
stp63
a(S'ldflags'
p64
g2
(g3
g4
(lp65
g6
aS'-Wl,-Os'
p66
aS'-Wl,--gc-sections'
p67
atp68
Rp69
tp70
a(S'arduino_lib_version'
p71
g2
(cino.environment
Version
p72
c__builtin__
tuple
p73
(I1
I0
I1
tp74
tp75
Rp76
tp77
a(S'objcopy'
p78
S'/usr/bin/avr-objcopy'
p79
tp80
a(S'board_models'
p81
cino.environment
BoardModels
p82
((lp83
(lp84
S'uno'
p85
a(dp86
S'bootloader'
p87
(dp88
S'extended_fuses'
p89
S'0x05'
p90
sS'high_fuses'
p91
S'0xde'
p92
sS'low_fuses'
p93
S'0xff'
p94
sS'lock_bits'
p95
S'0x0F'
p96
sS'file'
p97
S'optiboot_atmega328.hex'
p98
sS'path'
p99
S'optiboot'
p100
sS'unlock_bits'
p101
S'0x3F'
p102
ssS'build'
p103
(dp104
S'core'
p105
S'arduino'
p106
sS'mcu'
p107
S'atmega328p'
p108
sS'f_cpu'
p109
S'16000000L'
p110
sS'variant'
p111
S'standard'
p112
ssS'name'
p113
S'Arduino Uno'
p114
sS'upload'
p115
(dp116
S'speed'
p117
S'115200'
p118
sS'maximum_size'
p119
S'32256'
p120
sS'protocol'
p121
S'arduino'
p122
ssaa(lp123
S'atmega328'
p124
a(dp125
S'bootloader'
p126
(dp127
S'extended_fuses'
p128
S'0x05'
p129
sS'high_fuses'
p130
S'0xDA'
p131
sS'low_fuses'
p132
S'0xFF'
p133
sS'lock_bits'
p134
S'0x0F'
p135
sS'file'
p136
S'ATmegaBOOT_168_atmega328.hex'
p137
sS'path'
p138
S'atmega'
p139
sS'unlock_bits'
p140
S'0x3F'
p141
ssS'build'
p142
(dp143
S'core'
p144
S'arduino'
p145
sS'mcu'
p146
S'atmega328p'
p147
sS'f_cpu'
p148
S'16000000L'
p149
sS'variant'
p150
S'standard'
p151
ssS'name'
p152
S'Arduino Duemilanove w/ ATmega328'
p153
sS'upload'
p154
(dp155
S'speed'
p156
S'57600'
p157
sS'maximum_size'
p158
S'30720'
p159
sS'protocol'
p160
S'arduino'
p161
ssaa(lp162
S'diecimila'
p163
a(dp164
S'bootloader'
p165
(dp166
S'extended_fuses'
p167
S'0x00'
p168
sS'high_fuses'
p169
S'0xdd'
p170
sS'low_fuses'
p171
S'0xff'
p172
sS'lock_bits'
p173
S'0x0F'
p174
sS'file'
p175
S'ATmegaBOOT_168_diecimila.hex'
p176
sS'path'
p177
S'atmega'
p178
sS'unlock_bits'
p179
S'0x3F'
p180
ssS'build'
p181
(dp182
S'core'
p183
S'arduino'
p184
sS'mcu'
p185
S'atmega168'
p186
sS'f_cpu'
p187
S'16000000L'
p188
sS'variant'
p189
S'standard'
p190
ssS'name'
p191
S'Arduino Diecimila or Duemilanove w/ ATmega168'
p192
sS'upload'
p193
(dp194
S'speed'
p195
S'19200'
p196
sS'maximum_size'
p197
S'14336'
p198
sS'protocol'
p199
S'arduino'
p200
ssaa(lp201
S'nano328'
p202
a(dp203
S'bootloader'
p204
(dp205
S'extended_fuses'
p206
S'0x05'
p207
sS'high_fuses'
p208
S'0xDA'
p209
sS'low_fuses'
p210
S'0xFF'
p211
sS'lock_bits'
p212
S'0x0F'
p213
sS'file'
p214
S'ATmegaBOOT_168_atmega328.hex'
p215
sS'path'
p216
S'atmega'
p217
sS'unlock_bits'
p218
S'0x3F'
p219
ssS'build'
p220
(dp221
S'core'
p222
S'arduino'
p223
sS'mcu'
p224
S'atmega328p'
p225
sS'f_cpu'
p226
S'16000000L'
p227
sS'variant'
p228
S'eightanaloginputs'
p229
ssS'name'
p230
S'Arduino Nano w/ ATmega328'
p231
sS'upload'
p232
(dp233
S'speed'
p234
S'57600'
p235
sS'maximum_size'
p236
S'30720'
p237
sS'protocol'
p238
S'arduino'
p239
ssaa(lp240
S'nano'
p241
a(dp242
S'bootloader'
p243
(dp244
S'extended_fuses'
p245
S'0x00'
p246
sS'high_fuses'
p247
S'0xdd'
p248
sS'low_fuses'
p249
S'0xff'
p250
sS'lock_bits'
p251
S'0x0F'
p252
sS'file'
p253
S'ATmegaBOOT_168_diecimila.hex'
p254
sS'path'
p255
S'atmega'
p256
sS'unlock_bits'
p257
S'0x3F'
p258
ssS'build'
p259
(dp260
S'core'
p261
S'arduino'
p262
sS'mcu'
p263
S'atmega168'
p264
sS'f_cpu'
p265
S'16000000L'
p266
sS'variant'
p267
S'eightanaloginputs'
p268
ssS'name'
p269
S'Arduino Nano w/ ATmega168'
p270
sS'upload'
p271
(dp272
S'speed'
p273
S'19200'
p274
sS'maximum_size'
p275
S'14336'
p276
sS'protocol'
p277
S'arduino'
p278
ssaa(lp279
S'mega2560'
p280
a(dp281
S'bootloader'
p282
(dp283
S'extended_fuses'
p284
S'0xFD'
p285
sS'high_fuses'
p286
S'0xD8'
p287
sS'low_fuses'
p288
S'0xFF'
p289
sS'lock_bits'
p290
S'0x0F'
p291
sS'file'
p292
S'stk500boot_v2_mega2560.hex'
p293
sS'path'
p294
S'stk500v2'
p295
sS'unlock_bits'
p296
S'0x3F'
p297
ssS'build'
p298
(dp299
S'core'
p300
S'arduino'
p301
sS'mcu'
p302
S'atmega2560'
p303
sS'f_cpu'
p304
S'16000000L'
p305
sS'variant'
p306
S'mega'
p307
ssS'name'
p308
S'Arduino Mega 2560 or Mega ADK'
p309
sS'upload'
p310
(dp311
S'speed'
p312
S'115200'
p313
sS'maximum_size'
p314
S'258048'
p315
sS'protocol'
p316
S'stk500v2'
p317
ssaa(lp318
S'mega'
p319
a(dp320
S'bootloader'
p321
(dp322
S'extended_fuses'
p323
S'0xF5'
p324
sS'high_fuses'
p325
S'0xDA'
p326
sS'low_fuses'
p327
S'0xFF'
p328
sS'lock_bits'
p329
S'0x0F'
p330
sS'file'
p331
S'ATmegaBOOT_168_atmega1280.hex'
p332
sS'path'
p333
S'atmega'
p334
sS'unlock_bits'
p335
S'0x3F'
p336
ssS'build'
p337
(dp338
S'core'
p339
S'arduino'
p340
sS'mcu'
p341
S'atmega1280'
p342
sS'f_cpu'
p343
S'16000000L'
p344
sS'variant'
p345
S'mega'
p346
ssS'name'
p347
S'Arduino Mega (ATmega1280)'
p348
sS'upload'
p349
(dp350
S'speed'
p351
S'57600'
p352
sS'maximum_size'
p353
S'126976'
p354
sS'protocol'
p355
S'arduino'
p356
ssaa(lp357
S'leonardo'
p358
a(dp359
S'bootloader'
p360
(dp361
S'extended_fuses'
p362
S'0xcb'
p363
sS'high_fuses'
p364
S'0xd8'
p365
sS'low_fuses'
p366
S'0xff'
p367
sS'lock_bits'
p368
S'0x2F'
p369
sS'file'
p370
S'Caterina-Leonardo.hex'
p371
sS'path'
p372
S'caterina'
p373
sS'unlock_bits'
p374
S'0x3F'
p375
ssS'build'
p376
(dp377
S'core'
p378
S'arduino'
p379
sS'f_cpu'
p380
S'16000000L'
p381
sS'vid'
p382
S'0x2341'
p383
sS'pid'
p384
S'0x8036'
p385
sS'variant'
p386
S'leonardo'
p387
sS'mcu'
p388
S'atmega32u4'
p389
ssS'name'
p390
S'Arduino Leonardo'
p391
sS'upload'
p392
(dp393
S'speed'
p394
S'57600'
p395
sS'maximum_size'
p396
S'28672'
p397
sS'protocol'
p398
S'avr109'
p399
sS'disable_flushing'
p400
S'true'
p401
ssaa(lp402
S'mini328'
p403
a(dp404
S'bootloader'
p405
(dp406
S'extended_fuses'
p407
S'0x05'
p408
sS'high_fuses'
p409
S'0xd8'
p410
sS'low_fuses'
p411
S'0xff'
p412
sS'lock_bits'
p413
S'0x0F'
p414
sS'file'
p415
S'optiboot_atmega328-Mini.hex'
p416
sS'path'
p417
S'optiboot'
p418
sS'unlock_bits'
p419
S'0x3F'
p420
ssS'build'
p421
(dp422
S'core'
p423
S'arduino'
p424
sS'mcu'
p425
S'atmega328p'
p426
sS'f_cpu'
p427
S'16000000L'
p428
sS'variant'
p429
S'eightanaloginputs'
p430
ssS'name'
p431
S'Arduino Mini w/ ATmega328'
p432
sS'upload'
p433
(dp434
S'speed'
p435
S'115200'
p436
sS'maximum_size'
p437
S'28672'
p438
sS'protocol'
p439
S'arduino'
p440
ssaa(lp441
S'mini'
p442
a(dp443
S'bootloader'
p444
(dp445
S'extended_fuses'
p446
S'0x00'
p447
sS'high_fuses'
p448
S'0xdd'
p449
sS'low_fuses'
p450
S'0xff'
p451
sS'lock_bits'
p452
S'0x0F'
p453
sS'file'
p454
S'ATmegaBOOT_168_ng.hex'
p455
sS'path'
p456
S'atmega'
p457
sS'unlock_bits'
p458
S'0x3F'
p459
ssS'build'
p460
(dp461
S'core'
p462
S'arduino'
p463
sS'mcu'
p464
S'atmega168'
p465
sS'f_cpu'
p466
S'16000000L'
p467
sS'variant'
p468
S'eightanaloginputs'
p469
ssS'name'
p470
S'Arduino Mini w/ ATmega168'
p471
sS'upload'
p472
(dp473
S'speed'
p474
S'19200'
p475
sS'maximum_size'
p476
S'14336'
p477
sS'protocol'
p478
S'arduino'
p479
ssaa(lp480
S'ethernet'
p481
a(dp482
S'bootloader'
p483
(dp484
S'extended_fuses'
p485
S'0x05'
p486
sS'high_fuses'
p487
S'0xde'
p488
sS'low_fuses'
p489
S'0xff'
p490
sS'lock_bits'
p491
S'0x0F'
p492
sS'file'
p493
S'optiboot_atmega328.hex'
p494
sS'path'
p495
S'optiboot'
p496
sS'unlock_bits'
p497
S'0x3F'
p498
ssS'build'
p499
(dp500
S'f_cpu'
p501
S'16000000L'
p502
sS'mcu'
p503
S'atmega328p'
p504
sS'variant'
p505
S'standard'
p506
sS'core'
p507
S'arduino'
p508
ssS'name'
p509
S'Arduino Ethernet'
p510
sS'upload'
p511
(dp512
S'speed'
p513
S'115200'
p514
sS'maximum_size'
p515
S'32256'
p516
sS'protocol'
p517
S'arduino'
p518
ssaa(lp519
S'fio'
p520
a(dp521
S'bootloader'
p522
(dp523
S'extended_fuses'
p524
S'0x05'
p525
sS'high_fuses'
p526
S'0xDA'
p527
sS'low_fuses'
p528
S'0xFF'
p529
sS'lock_bits'
p530
S'0x0F'
p531
sS'file'
p532
S'ATmegaBOOT_168_atmega328_pro_8MHz.hex'
p533
sS'path'
p534
S'arduino:atmega'
p535
sS'unlock_bits'
p536
S'0x3F'
p537
ssS'build'
p538
(dp539
S'core'
p540
S'arduino'
p541
sS'mcu'
p542
S'atmega328p'
p543
sS'f_cpu'
p544
S'8000000L'
p545
sS'variant'
p546
S'eightanaloginputs'
p547
ssS'name'
p548
S'Arduino Fio'
p549
sS'upload'
p550
(dp551
S'speed'
p552
S'57600'
p553
sS'maximum_size'
p554
S'30720'
p555
sS'protocol'
p556
S'arduino'
p557
ssaa(lp558
S'bt328'
p559
a(dp560
S'bootloader'
p561
(dp562
S'extended_fuses'
p563
S'0x05'
p564
sS'high_fuses'
p565
S'0xd8'
p566
sS'low_fuses'
p567
S'0xff'
p568
sS'lock_bits'
p569
S'0x0F'
p570
sS'file'
p571
S'ATmegaBOOT_168_atmega328_bt.hex'
p572
sS'path'
p573
S'bt'
p574
sS'unlock_bits'
p575
S'0x3F'
p576
ssS'build'
p577
(dp578
S'core'
p579
S'arduino'
p580
sS'mcu'
p581
S'atmega328p'
p582
sS'f_cpu'
p583
S'16000000L'
p584
sS'variant'
p585
S'eightanaloginputs'
p586
ssS'name'
p587
S'Arduino BT w/ ATmega328'
p588
sS'upload'
p589
(dp590
S'speed'
p591
S'19200'
p592
sS'maximum_size'
p593
S'28672'
p594
sS'protocol'
p595
S'arduino'
p596
sS'disable_flushing'
p597
S'true'
p598
ssaa(lp599
S'bt'
p600
a(dp601
S'bootloader'
p602
(dp603
S'extended_fuses'
p604
S'0x00'
p605
sS'high_fuses'
p606
S'0xdd'
p607
sS'low_fuses'
p608
S'0xff'
p609
sS'lock_bits'
p610
S'0x0F'
p611
sS'file'
p612
S'ATmegaBOOT_168.hex'
p613
sS'path'
p614
S'bt'
p615
sS'unlock_bits'
p616
S'0x3F'
p617
ssS'build'
p618
(dp619
S'core'
p620
S'arduino'
p621
sS'mcu'
p622
S'atmega168'
p623
sS'f_cpu'
p624
S'16000000L'
p625
sS'variant'
p626
S'eightanaloginputs'
p627
ssS'name'
p628
S'Arduino BT w/ ATmega168'
p629
sS'upload'
p630
(dp631
S'speed'
p632
S'19200'
p633
sS'maximum_size'
p634
S'14336'
p635
sS'protocol'
p636
S'arduino'
p637
sS'disable_flushing'
p638
S'true'
p639
ssaa(lp640
S'lilypad328'
p641
a(dp642
S'bootloader'
p643
(dp644
S'extended_fuses'
p645
S'0x05'
p646
sS'high_fuses'
p647
S'0xDA'
p648
sS'low_fuses'
p649
S'0xFF'
p650
sS'lock_bits'
p651
S'0x0F'
p652
sS'file'
p653
S'ATmegaBOOT_168_atmega328_pro_8MHz.hex'
p654
sS'path'
p655
S'atmega'
p656
sS'unlock_bits'
p657
S'0x3F'
p658
ssS'build'
p659
(dp660
S'core'
p661
S'arduino'
p662
sS'mcu'
p663
S'atmega328p'
p664
sS'f_cpu'
p665
S'8000000L'
p666
sS'variant'
p667
S'standard'
p668
ssS'name'
p669
S'LilyPad Arduino w/ ATmega328'
p670
sS'upload'
p671
(dp672
S'speed'
p673
S'57600'
p674
sS'maximum_size'
p675
S'30720'
p676
sS'protocol'
p677
S'arduino'
p678
ssaa(lp679
S'lilypad'
p680
a(dp681
S'bootloader'
p682
(dp683
S'extended_fuses'
p684
S'0x00'
p685
sS'high_fuses'
p686
S'0xdd'
p687
sS'low_fuses'
p688
S'0xe2'
p689
sS'lock_bits'
p690
S'0x0F'
p691
sS'file'
p692
S'LilyPadBOOT_168.hex'
p693
sS'path'
p694
S'lilypad'
p695
sS'unlock_bits'
p696
S'0x3F'
p697
ssS'build'
p698
(dp699
S'core'
p700
S'arduino'
p701
sS'mcu'
p702
S'atmega168'
p703
sS'f_cpu'
p704
S'8000000L'
p705
sS'variant'
p706
S'standard'
p707
ssS'name'
p708
S'LilyPad Arduino w/ ATmega168'
p709
sS'upload'
p710
(dp711
S'speed'
p712
S'19200'
p713
sS'maximum_size'
p714
S'14336'
p715
sS'protocol'
p716
S'arduino'
p717
ssaa(lp718
S'pro5v328'
p719
a(dp720
S'bootloader'
p721
(dp722
S'extended_fuses'
p723
S'0x05'
p724
sS'high_fuses'
p725
S'0xDA'
p726
sS'low_fuses'
p727
S'0xFF'
p728
sS'lock_bits'
p729
S'0x0F'
p730
sS'file'
p731
S'ATmegaBOOT_168_atmega328.hex'
p732
sS'path'
p733
S'atmega'
p734
sS'unlock_bits'
p735
S'0x3F'
p736
ssS'build'
p737
(dp738
S'core'
p739
S'arduino'
p740
sS'mcu'
p741
S'atmega328p'
p742
sS'f_cpu'
p743
S'16000000L'
p744
sS'variant'
p745
S'standard'
p746
ssS'name'
p747
S'Arduino Pro or Pro Mini (5V, 16 MHz) w/ ATmega328'
p748
sS'upload'
p749
(dp750
S'speed'
p751
S'57600'
p752
sS'maximum_size'
p753
S'30720'
p754
sS'protocol'
p755
S'arduino'
p756
ssaa(lp757
S'pro5v'
p758
a(dp759
S'bootloader'
p760
(dp761
S'extended_fuses'
p762
S'0x00'
p763
sS'high_fuses'
p764
S'0xdd'
p765
sS'low_fuses'
p766
S'0xff'
p767
sS'lock_bits'
p768
S'0x0F'
p769
sS'file'
p770
S'ATmegaBOOT_168_diecimila.hex'
p771
sS'path'
p772
S'atmega'
p773
sS'unlock_bits'
p774
S'0x3F'
p775
ssS'build'
p776
(dp777
S'core'
p778
S'arduino'
p779
sS'mcu'
p780
S'atmega168'
p781
sS'f_cpu'
p782
S'16000000L'
p783
sS'variant'
p784
S'standard'
p785
ssS'name'
p786
S'Arduino Pro or Pro Mini (5V, 16 MHz) w/ ATmega168'
p787
sS'upload'
p788
(dp789
S'speed'
p790
S'19200'
p791
sS'maximum_size'
p792
S'14336'
p793
sS'protocol'
p794
S'arduino'
p795
ssaa(lp796
S'pro328'
p797
a(dp798
S'bootloader'
p799
(dp800
S'extended_fuses'
p801
S'0x05'
p802
sS'high_fuses'
p803
S'0xDA'
p804
sS'low_fuses'
p805
S'0xFF'
p806
sS'lock_bits'
p807
S'0x0F'
p808
sS'file'
p809
S'ATmegaBOOT_168_atmega328_pro_8MHz.hex'
p810
sS'path'
p811
S'atmega'
p812
sS'unlock_bits'
p813
S'0x3F'
p814
ssS'build'
p815
(dp816
S'core'
p817
S'arduino'
p818
sS'mcu'
p819
S'atmega328p'
p820
sS'f_cpu'
p821
S'8000000L'
p822
sS'variant'
p823
S'standard'
p824
ssS'name'
p825
S'Arduino Pro or Pro Mini (3.3V, 8 MHz) w/ ATmega328'
p826
sS'upload'
p827
(dp828
S'speed'
p829
S'57600'
p830
sS'maximum_size'
p831
S'30720'
p832
sS'protocol'
p833
S'arduino'
p834
ssaa(lp835
S'pro'
p836
a(dp837
S'bootloader'
p838
(dp839
S'extended_fuses'
p840
S'0x00'
p841
sS'high_fuses'
p842
S'0xdd'
p843
sS'low_fuses'
p844
S'0xc6'
p845
sS'lock_bits'
p846
S'0x0F'
p847
sS'file'
p848
S'ATmegaBOOT_168_pro_8MHz.hex'
p849
sS'path'
p850
S'atmega'
p851
sS'unlock_bits'
p852
S'0x3F'
p853
ssS'build'
p854
(dp855
S'core'
p856
S'arduino'
p857
sS'mcu'
p858
S'atmega168'
p859
sS'f_cpu'
p860
S'8000000L'
p861
sS'variant'
p862
S'standard'
p863
ssS'name'
p864
S'Arduino Pro or Pro Mini (3.3V, 8 MHz) w/ ATmega168'
p865
sS'upload'
p866
(dp867
S'speed'
p868
S'19200'
p869
sS'maximum_size'
p870
S'14336'
p871
sS'protocol'
p872
S'arduino'
p873
ssaa(lp874
S'atmega168'
p875
a(dp876
S'bootloader'
p877
(dp878
S'extended_fuses'
p879
S'0x00'
p880
sS'high_fuses'
p881
S'0xdd'
p882
sS'low_fuses'
p883
S'0xff'
p884
sS'lock_bits'
p885
S'0x0F'
p886
sS'file'
p887
S'ATmegaBOOT_168_ng.hex'
p888
sS'path'
p889
S'atmega'
p890
sS'unlock_bits'
p891
S'0x3F'
p892
ssS'build'
p893
(dp894
S'core'
p895
S'arduino'
p896
sS'mcu'
p897
S'atmega168'
p898
sS'f_cpu'
p899
S'16000000L'
p900
sS'variant'
p901
S'standard'
p902
ssS'name'
p903
S'Arduino NG or older w/ ATmega168'
p904
sS'upload'
p905
(dp906
S'speed'
p907
S'19200'
p908
sS'maximum_size'
p909
S'14336'
p910
sS'protocol'
p911
S'arduino'
p912
ssaa(lp913
S'atmega8'
p914
a(dp915
S'bootloader'
p916
(dp917
S'high_fuses'
p918
S'0xca'
p919
sS'low_fuses'
p920
S'0xdf'
p921
sS'lock_bits'
p922
S'0x0F'
p923
sS'file'
p924
S'ATmegaBOOT.hex'
p925
sS'path'
p926
S'atmega8'
p927
sS'unlock_bits'
p928
S'0x3F'
p929
ssS'build'
p930
(dp931
S'core'
p932
S'arduino'
p933
sS'mcu'
p934
S'atmega8'
p935
sS'f_cpu'
p936
S'16000000L'
p937
sS'variant'
p938
S'standard'
p939
ssS'name'
p940
S'Arduino NG or older w/ ATmega8'
p941
sS'upload'
p942
(dp943
S'speed'
p944
S'19200'
p945
sS'maximum_size'
p946
S'7168'
p947
sS'protocol'
p948
S'arduino'
p949
ssaatp950
Rp951
(dp952
S'default'
p953
S'uno'
p954
sbtp955
a(S'used_libs'
p956
(lp957
S'/usr/share/arduino/libraries/PWFusion_MAX31865'
p958
aS'/usr/share/arduino/libraries/dht11'
p959
aS'/usr/share/arduino/libraries/br3ttb-Arduino-PID-AutoTune-Library-7c03cf3'
p960
aS'/usr/share/arduino/libraries/U8glib'
p961
aS'/usr/share/arduino/libraries/br3ttb-Arduino-PID-Library-d21d7e3'
p962
aS'/usr/share/arduino/libraries/SPI'
p963
aS'/usr/share/arduino/hardware/arduino/cores/arduino'
p964
atp965
a(S'make'
p966
S'/usr/bin/make'
p967
tp968
a(S'arduino_libraries_dir'
p969
S'/usr/share/arduino/libraries'
p970
tp971
a(S'cc'
p972
S'/usr/bin/avr-gcc'
p973
tp974
a(S'cflags'
p975
g2
(g3
g4
(lp976
tp977
Rp978
tp979
a(S'cxxflags'
p980
g2
(g3
g4
(lp981
S'-fno-exceptions'
p982
atp983
Rp984
tp985
a(S'arduino_variants_dir'
p986
S'/usr/share/arduino/hardware/arduino/variants'
p987
tp988
a(S'stty'
p989
S'/bin/stty'
p990
tp991
a(S'version.txt'
p992
S'/usr/share/arduino/lib/version.txt'
p993
tp994
a(S'arduino_core_dir'
p995
g964
tp996
a(S'boards.txt'
p997
S'/usr/share/arduino/hardware/arduino/boards.txt'
p998
tp999
a(S'avrdude.conf'
p1000
S'/usr/share/arduino/hardware/tools/avrdude.conf'
p1001
tp1002
a(S'deps'
p1003
g2
(g3
g4
(lp1004
S'.build/mega2560/src/dependencies.d'
p1005
aS'.build/mega2560/arduino/dependencies.d'
p1006
aS'.build/mega2560/PWFusion_MAX31865/dependencies.d'
p1007
aS'.build/mega2560/dht11/dependencies.d'
p1008
aS'.build/mega2560/SPI/dependencies.d'
p1009
aS'.build/mega2560/br3ttb-Arduino-PID-AutoTune-Library-7c03cf3/dependencies.d'
p1010
aS'.build/mega2560/U8glib/dependencies.d'
p1011
aS'.build/mega2560/br3ttb-Arduino-PID-Library-d21d7e3/dependencies.d'
p1012
atp1013
Rp1014
tp1015
a.